target datalayout = "e-m:e-p270:32:32-p271:32:32-p272:64:64-i64:64-i128:128-f80:128-n8:16:32:64-S128"
target triple = "x86_64-pc-linux-gnu"

%struct.Aig_Man_t_ = type { ptr, ptr, ptr, ptr, ptr, ptr, ptr, %struct.Aig_Obj_t_, i32, i32, i32, i32, i32, i32, [7 x i32], i32, ptr, i32, ptr, i32, ptr, i32, i32, i32, ptr, i32, i32, i32, i32, i32, ptr, ptr, i32, ptr, ptr, i32, ptr, ptr, i32, i32, i32, ptr, ptr, ptr, ptr, ptr, ptr, ptr, ptr, ptr, ptr, ptr, ptr, ptr, ptr, i32, ptr, ptr, ptr, ptr, i32, i64, i64, i64, ptr, ptr }
%struct.Aig_Obj_t_ = type { %union.anon, ptr, ptr, i64, i32, i32, %union.anon.0 }
%union.anon = type { ptr }
%union.anon.0 = type { ptr }
%struct.timespec = type { i64, i64 }

; Function Attrs: nounwind uwtable
define internal i32 @Aig_IsComplement(ptr noundef %0) #0 {
  %2 = alloca ptr, align 8
  store ptr %0, ptr %2, align 8
  %3 = load ptr, ptr %2, align 8
  %4 = ptrtoint ptr %3 to i64
  %5 = and i64 %4, 1
  %6 = trunc i64 %5 to i32
  ret i32 %6
}

; Function Attrs: nounwind uwtable
define internal ptr @Aig_Regular(ptr noundef %0) #0 {
  %2 = alloca ptr, align 8
  store ptr %0, ptr %2, align 8
  %3 = load ptr, ptr %2, align 8
  %4 = ptrtoint ptr %3 to i64
  %5 = and i64 %4, -2
  %6 = inttoptr i64 %5 to ptr
  ret ptr %6
}

; Function Attrs: nounwind uwtable
define internal i32 @Aig_ObjFaninC1(ptr noundef %0) #0 {
  %2 = alloca ptr, align 8
  store ptr %0, ptr %2, align 8
  %3 = load ptr, ptr %2, align 8
  %4 = getelementptr inbounds %struct.Aig_Obj_t_, ptr %3, i32 0, i32 2
  %5 = load ptr, ptr %4, align 8
  %6 = call i32 @Aig_IsComplement(ptr noundef %5)
  ret i32 %6
}

; Function Attrs: nounwind uwtable
define internal i32 @Aig_ObjFaninC0(ptr noundef %0) #0 {
  %2 = alloca ptr, align 8
  store ptr %0, ptr %2, align 8
  %3 = load ptr, ptr %2, align 8
  %4 = getelementptr inbounds %struct.Aig_Obj_t_, ptr %3, i32 0, i32 1
  %5 = load ptr, ptr %4, align 8
  %6 = call i32 @Aig_IsComplement(ptr noundef %5)
  ret i32 %6
}

; Function Attrs: nounwind uwtable
define internal ptr @Aig_ObjFanin1(ptr noundef %0) #0 {
  %2 = alloca ptr, align 8
  store ptr %0, ptr %2, align 8
  %3 = load ptr, ptr %2, align 8
  %4 = getelementptr inbounds %struct.Aig_Obj_t_, ptr %3, i32 0, i32 2
  %5 = load ptr, ptr %4, align 8
  %6 = call ptr @Aig_Regular(ptr noundef %5)
  ret ptr %6
}

; Function Attrs: nounwind uwtable
define internal ptr @Aig_ObjFanin0(ptr noundef %0) #0 {
  %2 = alloca ptr, align 8
  store ptr %0, ptr %2, align 8
  %3 = load ptr, ptr %2, align 8
  %4 = getelementptr inbounds %struct.Aig_Obj_t_, ptr %3, i32 0, i32 1
  %5 = load ptr, ptr %4, align 8
  %6 = call ptr @Aig_Regular(ptr noundef %5)
  ret ptr %6
}

; Function Attrs: nounwind uwtable
define internal i32 @Aig_ObjIsExor(ptr noundef %0) #0 {
  %2 = alloca ptr, align 8
  store ptr %0, ptr %2, align 8
  %3 = load ptr, ptr %2, align 8
  %4 = getelementptr inbounds %struct.Aig_Obj_t_, ptr %3, i32 0, i32 3
  %5 = load i64, ptr %4, align 8
  %6 = and i64 %5, 7
  %7 = trunc i64 %6 to i32
  %8 = icmp eq i32 %7, 6
  %9 = zext i1 %8 to i32
  ret i32 %9
}

; Function Attrs: nounwind uwtable
define internal i64 @Aig_Hash(ptr noundef %0, i32 noundef %1) #0 {
  %3 = alloca ptr, align 8
  %4 = alloca i32, align 4
  %5 = alloca i64, align 8
  store ptr %0, ptr %3, align 8
  store i32 %1, ptr %4, align 4
  %6 = load ptr, ptr %3, align 8
  %7 = call i32 @Aig_ObjIsExor(ptr noundef %6)
  %8 = mul nsw i32 %7, 1699
  %9 = sext i32 %8 to i64
  store i64 %9, ptr %5, align 8
  %10 = load ptr, ptr %3, align 8
  %11 = call ptr @Aig_ObjFanin0(ptr noundef %10)
  %12 = getelementptr inbounds %struct.Aig_Obj_t_, ptr %11, i32 0, i32 5
  %13 = load i32, ptr %12, align 4
  %14 = mul nsw i32 %13, 7937
  %15 = sext i32 %14 to i64
  %16 = load i64, ptr %5, align 8
  %17 = xor i64 %16, %15
  store i64 %17, ptr %5, align 8
  %18 = load ptr, ptr %3, align 8
  %19 = call ptr @Aig_ObjFanin1(ptr noundef %18)
  %20 = getelementptr inbounds %struct.Aig_Obj_t_, ptr %19, i32 0, i32 5
  %21 = load i32, ptr %20, align 4
  %22 = mul nsw i32 %21, 2971
  %23 = sext i32 %22 to i64
  %24 = load i64, ptr %5, align 8
  %25 = xor i64 %24, %23
  store i64 %25, ptr %5, align 8
  %26 = load ptr, ptr %3, align 8
  %27 = call i32 @Aig_ObjFaninC0(ptr noundef %26)
  %28 = mul nsw i32 %27, 911
  %29 = sext i32 %28 to i64
  %30 = load i64, ptr %5, align 8
  %31 = xor i64 %30, %29
  store i64 %31, ptr %5, align 8
  %32 = load ptr, ptr %3, align 8
  %33 = call i32 @Aig_ObjFaninC1(ptr noundef %32)
  %34 = mul nsw i32 %33, 353
  %35 = sext i32 %34 to i64
  %36 = load i64, ptr %5, align 8
  %37 = xor i64 %36, %35
  store i64 %37, ptr %5, align 8
  %38 = load i64, ptr %5, align 8
  %39 = load i32, ptr %4, align 4
  %40 = sext i32 %39 to i64
  %41 = urem i64 %38, %40
  ret i64 %41
}

; Function Attrs: nounwind uwtable
define internal ptr @Aig_TableFind(ptr noundef %0, ptr noundef %1) #0 {
  %3 = alloca ptr, align 8
  %4 = alloca ptr, align 8
  %5 = alloca ptr, align 8
  %6 = alloca ptr, align 8
  store ptr %0, ptr %4, align 8
  store ptr %1, ptr %5, align 8
  %7 = load ptr, ptr %4, align 8
  %8 = getelementptr inbounds %struct.Aig_Man_t_, ptr %7, i32 0, i32 16
  %9 = load ptr, ptr %8, align 8
  %10 = load ptr, ptr %5, align 8
  %11 = load ptr, ptr %4, align 8
  %12 = getelementptr inbounds %struct.Aig_Man_t_, ptr %11, i32 0, i32 17
  %13 = load i32, ptr %12, align 8
  %14 = call i64 @Aig_Hash(ptr noundef %10, i32 noundef %13)
  %15 = getelementptr inbounds ptr, ptr %9, i64 %14
  store ptr %15, ptr %6, align 8
  br label %16

16:                                               ; preds = %28, %2
  %17 = load ptr, ptr %6, align 8
  %18 = load ptr, ptr %17, align 8
  %19 = icmp ne ptr %18, null
  br i1 %19, label %20, label %32

20:                                               ; preds = %16
  %21 = load ptr, ptr %6, align 8
  %22 = load ptr, ptr %21, align 8
  %23 = load ptr, ptr %5, align 8
  %24 = icmp eq ptr %22, %23
  br i1 %24, label %25, label %27

25:                                               ; preds = %20
  %26 = load ptr, ptr %6, align 8
  store ptr %26, ptr %3, align 8
  br label %34

27:                                               ; preds = %20
  br label %28

28:                                               ; preds = %27
  %29 = load ptr, ptr %6, align 8
  %30 = load ptr, ptr %29, align 8
  %31 = getelementptr inbounds %struct.Aig_Obj_t_, ptr %30, i32 0, i32 0
  store ptr %31, ptr %6, align 8
  br label %16, !llvm.loop !9

32:                                               ; preds = %16
  %33 = load ptr, ptr %6, align 8
  store ptr %33, ptr %3, align 8
  br label %34

34:                                               ; preds = %32, %25
  %35 = load ptr, ptr %3, align 8
  ret ptr %35
}

; Function Attrs: nounwind uwtable
define internal i32 @Abc_PrimeCudd(i32 noundef %0) #0 {
  %2 = alloca i32, align 4
  %3 = alloca i32, align 4
  %4 = alloca i32, align 4
  store i32 %0, ptr %2, align 4
  %5 = load i32, ptr %2, align 4
  %6 = add i32 %5, -1
  store i32 %6, ptr %2, align 4
  br label %7

7:                                                ; preds = %32, %1
  %8 = load i32, ptr %2, align 4
  %9 = add i32 %8, 1
  store i32 %9, ptr %2, align 4
  %10 = load i32, ptr %2, align 4
  %11 = and i32 %10, 1
  %12 = icmp ne i32 %11, 0
  br i1 %12, label %13, label %30

13:                                               ; preds = %7
  store i32 1, ptr %4, align 4
  store i32 3, ptr %3, align 4
  br label %14

14:                                               ; preds = %26, %13
  %15 = load i32, ptr %3, align 4
  %16 = load i32, ptr %3, align 4
  %17 = mul nsw i32 %15, %16
  %18 = load i32, ptr %2, align 4
  %19 = icmp ule i32 %17, %18
  br i1 %19, label %20, label %29

20:                                               ; preds = %14
  %21 = load i32, ptr %2, align 4
  %22 = load i32, ptr %3, align 4
  %23 = urem i32 %21, %22
  %24 = icmp eq i32 %23, 0
  br i1 %24, label %25, label %26

25:                                               ; preds = %20
  store i32 0, ptr %4, align 4
  br label %29

26:                                               ; preds = %20
  %27 = load i32, ptr %3, align 4
  %28 = add nsw i32 %27, 2
  store i32 %28, ptr %3, align 4
  br label %14, !llvm.loop !7

29:                                               ; preds = %25, %14
  br label %31

30:                                               ; preds = %7
  store i32 0, ptr %4, align 4
  br label %31

31:                                               ; preds = %30, %29
  br label %32

32:                                               ; preds = %31
  %33 = load i32, ptr %4, align 4
  %34 = icmp ne i32 %33, 0
  %35 = xor i1 %34, true
  br i1 %35, label %7, label %36, !llvm.loop !8

36:                                               ; preds = %32
  %37 = load i32, ptr %2, align 4
  ret i32 %37
}

; Function Attrs: nounwind uwtable
define internal i32 @Aig_ManNodeNum(ptr noundef %0) #0 {
  %2 = alloca ptr, align 8
  store ptr %0, ptr %2, align 8
  %3 = load ptr, ptr %2, align 8
  %4 = getelementptr inbounds %struct.Aig_Man_t_, ptr %3, i32 0, i32 14
  %5 = getelementptr inbounds [7 x i32], ptr %4, i64 0, i64 5
  %6 = load i32, ptr %5, align 4
  %7 = load ptr, ptr %2, align 8
  %8 = getelementptr inbounds %struct.Aig_Man_t_, ptr %7, i32 0, i32 14
  %9 = getelementptr inbounds [7 x i32], ptr %8, i64 0, i64 6
  %10 = load i32, ptr %9, align 8
  %11 = add nsw i32 %6, %10
  ret i32 %11
}

; Function Attrs: nounwind uwtable
define internal i64 @Abc_Clock() #0 {
  %1 = alloca i64, align 8
  %2 = alloca %struct.timespec, align 8
  %3 = alloca i64, align 8
  %4 = call i32 @clock_gettime(i32 noundef 1, ptr noundef %2) #6
  %5 = icmp slt i32 %4, 0
  br i1 %5, label %6, label %7

6:                                                ; preds = %0
  store i64 -1, ptr %1, align 8
  br label %18

7:                                                ; preds = %0
  %8 = getelementptr inbounds %struct.timespec, ptr %2, i32 0, i32 0
  %9 = load i64, ptr %8, align 8
  %10 = mul nsw i64 %9, 1000000
  store i64 %10, ptr %3, align 8
  %11 = getelementptr inbounds %struct.timespec, ptr %2, i32 0, i32 1
  %12 = load i64, ptr %11, align 8
  %13 = mul nsw i64 %12, 1000000
  %14 = sdiv i64 %13, 1000000000
  %15 = load i64, ptr %3, align 8
  %16 = add nsw i64 %15, %14
  store i64 %16, ptr %3, align 8
  %17 = load i64, ptr %3, align 8
  store i64 %17, ptr %1, align 8
  br label %18

18:                                               ; preds = %7, %6
  %19 = load i64, ptr %1, align 8
  ret i64 %19
}

; Function Attrs: nounwind uwtable
define void @Aig_TableResize(ptr noundef %0) #0 {
  %2 = alloca ptr, align 8
  %3 = alloca ptr, align 8
  %4 = alloca ptr, align 8
  %5 = alloca ptr, align 8
  %6 = alloca ptr, align 8
  %7 = alloca i32, align 4
  %8 = alloca i32, align 4
  %9 = alloca i32, align 4
  %10 = alloca i64, align 8
  store ptr %0, ptr %2, align 8
  %11 = call i64 @Abc_Clock()
  store i64 %11, ptr %10, align 8
  %12 = load ptr, ptr %2, align 8
  %13 = getelementptr inbounds %struct.Aig_Man_t_, ptr %12, i32 0, i32 16
  %14 = load ptr, ptr %13, align 8
  store ptr %14, ptr %5, align 8
  %15 = load ptr, ptr %2, align 8
  %16 = getelementptr inbounds %struct.Aig_Man_t_, ptr %15, i32 0, i32 17
  %17 = load i32, ptr %16, align 8
  store i32 %17, ptr %7, align 4
  %18 = load ptr, ptr %2, align 8
  %19 = call i32 @Aig_ManNodeNum(ptr noundef %18)
  %20 = mul nsw i32 2, %19
  %21 = call i32 @Abc_PrimeCudd(i32 noundef %20)
  %22 = load ptr, ptr %2, align 8
  %23 = getelementptr inbounds %struct.Aig_Man_t_, ptr %22, i32 0, i32 17
  store i32 %21, ptr %23, align 8
  %24 = load ptr, ptr %2, align 8
  %25 = getelementptr inbounds %struct.Aig_Man_t_, ptr %24, i32 0, i32 17
  %26 = load i32, ptr %25, align 8
  %27 = sext i32 %26 to i64
  %28 = mul i64 8, %27
  %29 = call noalias ptr @malloc(i64 noundef %28) #5
  %30 = load ptr, ptr %2, align 8
  %31 = getelementptr inbounds %struct.Aig_Man_t_, ptr %30, i32 0, i32 16
  store ptr %29, ptr %31, align 8
  %32 = load ptr, ptr %2, align 8
  %33 = getelementptr inbounds %struct.Aig_Man_t_, ptr %32, i32 0, i32 16
  %34 = load ptr, ptr %33, align 8
  %35 = load ptr, ptr %2, align 8
  %36 = getelementptr inbounds %struct.Aig_Man_t_, ptr %35, i32 0, i32 17
  %37 = load i32, ptr %36, align 8
  %38 = sext i32 %37 to i64
  %39 = mul i64 8, %38
  call void @llvm.memset.p0.i64(ptr align 8 %34, i8 0, i64 %39, i1 false)
  store i32 0, ptr %8, align 4
  store i32 0, ptr %9, align 4
  br label %40

40:                                               ; preds = %84, %1
  %41 = load i32, ptr %9, align 4
  %42 = load i32, ptr %7, align 4
  %43 = icmp slt i32 %41, %42
  br i1 %43, label %44, label %87

44:                                               ; preds = %40
  %45 = load ptr, ptr %5, align 8
  %46 = load i32, ptr %9, align 4
  %47 = sext i32 %46 to i64
  %48 = getelementptr inbounds ptr, ptr %45, i64 %47
  %49 = load ptr, ptr %48, align 8
  store ptr %49, ptr %3, align 8
  %50 = load ptr, ptr %3, align 8
  %51 = icmp ne ptr %50, null
  br i1 %51, label %52, label %56

52:                                               ; preds = %44
  %53 = load ptr, ptr %3, align 8
  %54 = getelementptr inbounds %struct.Aig_Obj_t_, ptr %53, i32 0, i32 0
  %55 = load ptr, ptr %54, align 8
  br label %57

56:                                               ; preds = %44
  br label %57

57:                                               ; preds = %56, %52
  %58 = phi ptr [ %55, %52 ], [ null, %56 ]
  store ptr %58, ptr %4, align 8
  br label %59

59:                                               ; preds = %81, %57
  %60 = load ptr, ptr %3, align 8
  %61 = icmp ne ptr %60, null
  br i1 %61, label %62, label %83

62:                                               ; preds = %59
  %63 = load ptr, ptr %2, align 8
  %64 = load ptr, ptr %3, align 8
  %65 = call ptr @Aig_TableFind(ptr noundef %63, ptr noundef %64)
  store ptr %65, ptr %6, align 8
  %66 = load ptr, ptr %3, align 8
  %67 = load ptr, ptr %6, align 8
  store ptr %66, ptr %67, align 8
  %68 = load ptr, ptr %3, align 8
  %69 = getelementptr inbounds %struct.Aig_Obj_t_, ptr %68, i32 0, i32 0
  store ptr null, ptr %69, align 8
  %70 = load i32, ptr %8, align 4
  %71 = add nsw i32 %70, 1
  store i32 %71, ptr %8, align 4
  br label %72

72:                                               ; preds = %62
  %73 = load ptr, ptr %4, align 8
  store ptr %73, ptr %3, align 8
  %74 = load ptr, ptr %3, align 8
  %75 = icmp ne ptr %74, null
  br i1 %75, label %76, label %80

76:                                               ; preds = %72
  %77 = load ptr, ptr %3, align 8
  %78 = getelementptr inbounds %struct.Aig_Obj_t_, ptr %77, i32 0, i32 0
  %79 = load ptr, ptr %78, align 8
  br label %81

80:                                               ; preds = %72
  br label %81

81:                                               ; preds = %80, %76
  %82 = phi ptr [ %79, %76 ], [ null, %80 ]
  store ptr %82, ptr %4, align 8
  br label %59, !llvm.loop !4

83:                                               ; preds = %59
  br label %84

84:                                               ; preds = %83
  %85 = load i32, ptr %9, align 4
  %86 = add nsw i32 %85, 1
  store i32 %86, ptr %9, align 4
  br label %40, !llvm.loop !6

87:                                               ; preds = %40
  %88 = load ptr, ptr %5, align 8
  %89 = icmp ne ptr %88, null
  br i1 %89, label %90, label %92

90:                                               ; preds = %87
  %91 = load ptr, ptr %5, align 8
  call void @free(ptr noundef %91) #6
  store ptr null, ptr %5, align 8
  br label %93

92:                                               ; preds = %87
  br label %93

93:                                               ; preds = %92, %90
  ret void
}