; Function Attrs: nounwind uwtable
define void @Aig_TableResize(ptr noundef captures(none) %0) local_unnamed_addr #0 {
Abc_Clock.exit:
  %1 = alloca %struct.timespec, align 8
  call void @llvm.lifetime.start.p0(i64 16, ptr nonnull %1)
  %2 = call i32 @clock_gettime(i32 noundef 1, ptr noundef nonnull %1) #11
  call void @llvm.lifetime.end.p0(i64 16, ptr nonnull %1)
  %3 = getelementptr inbounds nuw i8, ptr %0, i64 160
  %4 = load ptr, ptr %3, align 8
  %5 = getelementptr inbounds nuw i8, ptr %0, i64 168
  %6 = load i32, ptr %5, align 8
  %7 = getelementptr i8, ptr %0, i64 148
  %.val = load i32, ptr %7, align 4
  %8 = getelementptr i8, ptr %0, i64 152
  %.val34 = load i32, ptr %8, align 8
  %9 = add nsw i32 %.val34, %.val
  %10 = shl nsw i32 %9, 1
  %11 = add i32 %10, -1
  br label %.loopexit.i

.loopexit.i:                                      ; preds = %.loopexit.i.backedge, %Abc_Clock.exit
  %.012.i = phi i32 [ %11, %Abc_Clock.exit ], [ %12, %.loopexit.i.backedge ]
  %12 = add i32 %.012.i, 1
  %13 = and i32 %.012.i, 1
  %.not.not.i = icmp eq i32 %13, 0
  br i1 %.not.not.i, label %.preheader.i, label %.loopexit.i.backedge

.loopexit.i.backedge:                             ; preds = %.lr.ph.i, %.loopexit.i
  br label %.loopexit.i, !llvm.loop !4

.preheader.i:                                     ; preds = %.loopexit.i
  %.not15.i = icmp ult i32 %12, 9
  br i1 %.not15.i, label %Abc_PrimeCudd.exit, label %.lr.ph.i

14:                                               ; preds = %.lr.ph.i
  %15 = add nuw nsw i32 %.01116.i, 2
  %16 = mul nuw nsw i32 %15, %15
  %.not.i = icmp ugt i32 %16, %12
  br i1 %.not.i, label %Abc_PrimeCudd.exit, label %.lr.ph.i, !llvm.loop !6

.lr.ph.i:                                         ; preds = %.preheader.i, %14
  %.01116.i = phi i32 [ %15, %14 ], [ 3, %.preheader.i ]
  %17 = urem i32 %12, %.01116.i
  %18 = icmp eq i32 %17, 0
  br i1 %18, label %.loopexit.i.backedge, label %14, !llvm.loop !4

Abc_PrimeCudd.exit:                               ; preds = %.preheader.i, %14
  store i32 %12, ptr %5, align 8
  %19 = sext i32 %12 to i64
  %20 = shl nsw i64 %19, 3
  %calloc = call ptr @calloc(i64 1, i64 %20)
  store ptr %calloc, ptr %3, align 8
  %21 = icmp sgt i32 %6, 0
  br i1 %21, label %.lr.ph47.preheader, label %._crit_edge48

.lr.ph47.preheader:                               ; preds = %Abc_PrimeCudd.exit
  %wide.trip.count = zext nneg i32 %6 to i64
  br label %.lr.ph47

.lr.ph47:                                         ; preds = %.lr.ph47.preheader, %._crit_edge
  %indvars.iv = phi i64 [ 0, %.lr.ph47.preheader ], [ %indvars.iv.next, %._crit_edge ]
  %22 = getelementptr inbounds nuw ptr, ptr %4, i64 %indvars.iv
  %23 = load ptr, ptr %22, align 8
  %.not31 = icmp eq ptr %23, null
  br i1 %.not31, label %._crit_edge, label %.lr.ph

.lr.ph:                                           ; preds = %.lr.ph47, %Aig_TableFind.exit
  %.02842.sink = phi ptr [ %24, %Aig_TableFind.exit ], [ %23, %.lr.ph47 ]
  %24 = load ptr, ptr %.02842.sink, align 8
  %.val35 = load ptr, ptr %3, align 8
  %.val36 = load i32, ptr %5, align 8
  %25 = getelementptr i8, ptr %.02842.sink, i64 24
  %.val.i.i = load i64, ptr %25, align 8
  %26 = and i64 %.val.i.i, 7
  %27 = icmp eq i64 %26, 6
  %28 = select i1 %27, i64 1699, i64 0
  %29 = getelementptr i8, ptr %.02842.sink, i64 8
  %.val10.i.i = load ptr, ptr %29, align 8
  %30 = ptrtoint ptr %.val10.i.i to i64
  %31 = and i64 %30, -2
  %32 = inttoptr i64 %31 to ptr
  %33 = getelementptr inbounds nuw i8, ptr %32, i64 36
  %34 = load i32, ptr %33, align 4
  %35 = mul nsw i32 %34, 7937
  %36 = sext i32 %35 to i64
  %37 = xor i64 %28, %36
  %38 = getelementptr i8, ptr %.02842.sink, i64 16
  %.val11.i.i = load ptr, ptr %38, align 8
  %39 = ptrtoint ptr %.val11.i.i to i64
  %40 = and i64 %39, -2
  %41 = inttoptr i64 %40 to ptr
  %42 = getelementptr inbounds nuw i8, ptr %41, i64 36
  %43 = load i32, ptr %42, align 4
  %44 = mul nsw i32 %43, 2971
  %45 = sext i32 %44 to i64
  %46 = trunc i64 %30 to i1
  %47 = select i1 %46, i64 911, i64 0
  %48 = trunc i64 %39 to i1
  %49 = select i1 %48, i64 353, i64 0
  %50 = xor i64 %37, %47
  %51 = xor i64 %50, %45
  %52 = xor i64 %51, %49
  %53 = sext i32 %.val36 to i64
  %54 = urem i64 %52, %53
  %55 = getelementptr inbounds ptr, ptr %.val35, i64 %54
  br label %56

56:                                               ; preds = %56, %.lr.ph
  %.0.i37 = phi ptr [ %55, %.lr.ph ], [ %57, %56 ]
  %57 = load ptr, ptr %.0.i37, align 8
  %.not.i38 = icmp eq ptr %57, null
  %58 = icmp eq ptr %57, %.02842.sink
  %or.cond.i = or i1 %.not.i38, %58
  br i1 %or.cond.i, label %Aig_TableFind.exit, label %56, !llvm.loop !7

Aig_TableFind.exit:                               ; preds = %56
  store ptr %.02842.sink, ptr %.0.i37, align 8
  store ptr null, ptr %.02842.sink, align 8
  %.not33 = icmp eq ptr %24, null
  br i1 %.not33, label %._crit_edge, label %.lr.ph, !llvm.loop !8

._crit_edge:                                      ; preds = %Aig_TableFind.exit, %.lr.ph47
  %indvars.iv.next = add nuw nsw i64 %indvars.iv, 1
  %exitcond.not = icmp eq i64 %indvars.iv.next, %wide.trip.count
  br i1 %exitcond.not, label %._crit_edge48, label %.lr.ph47, !llvm.loop !9

._crit_edge48:                                    ; preds = %._crit_edge, %Abc_PrimeCudd.exit
  %.not = icmp eq ptr %4, null
  br i1 %.not, label %60, label %59

59:                                               ; preds = %._crit_edge48
  call void @free(ptr noundef nonnull %4) #11
  br label %60

60:                                               ; preds = %._crit_edge48, %59
  ret void
}